; Function Attrs: inlinehint mustprogress nounwind uwtable
define internal void @_ZN12_GLOBAL__N_117ObjectiveFunctionD2Ev(ptr nocapture noundef nonnull align 8 dereferenceable(76) %this) unnamed_addr #6 align 2 personality ptr @__gxx_personality_v0 {
entry:
  store ptr getelementptr inbounds inrange(-16, 80) (i8, ptr @_ZTVN12_GLOBAL__N_117ObjectiveFunctionE, i64 16), ptr %this, align 8, !tbaa !14
  %weights_ = getelementptr inbounds nuw i8, ptr %this, i64 48
  %0 = load ptr, ptr %weights_, align 8, !tbaa !33
  %cmp.not.i.i = icmp eq ptr %0, null
  br i1 %cmp.not.i.i, label %_ZN8QuantLib6MatrixD2Ev.exit, label %_ZNKSt14default_deleteIA_dEclIdEENSt9enable_ifIXsr14is_convertibleIPA_T_PS0_EE5valueEvE4typeEPS4_.exit.i.i

_ZNKSt14default_deleteIA_dEclIdEENSt9enable_ifIXsr14is_convertibleIPA_T_PS0_EE5valueEvE4typeEPS4_.exit.i.i: ; preds = %entry
  tail call void @_ZdaPv(ptr noundef nonnull %0) #27
  br label %_ZN8QuantLib6MatrixD2Ev.exit

_ZN8QuantLib6MatrixD2Ev.exit:                     ; preds = %entry, %_ZNKSt14default_deleteIA_dEclIdEENSt9enable_ifIXsr14is_convertibleIPA_T_PS0_EE5valueEvE4typeEPS4_.exit.i.i
  store ptr null, ptr %weights_, align 8, !tbaa !33
  %pn.i = getelementptr inbounds nuw i8, ptr %this, i64 40
  %1 = load ptr, ptr %pn.i, align 8, !tbaa !16
  %cmp.not.i.i1 = icmp eq ptr %1, null
  br i1 %cmp.not.i.i1, label %_ZN5boost10shared_ptrIN8QuantLib9CmsMarketEED2Ev.exit, label %if.then.i.i

if.then.i.i:                                      ; preds = %_ZN8QuantLib6MatrixD2Ev.exit
  %use_count_.i.i.i = getelementptr inbounds nuw i8, ptr %1, i64 8
  %2 = atomicrmw sub ptr %use_count_.i.i.i, i32 1 acq_rel, align 4
  %cmp.i.i.i = icmp eq i32 %2, 1
  br i1 %cmp.i.i.i, label %if.then.i.i.i, label %_ZN5boost10shared_ptrIN8QuantLib9CmsMarketEED2Ev.exit

if.then.i.i.i:                                    ; preds = %if.then.i.i
  %vtable.i.i.i = load ptr, ptr %1, align 8, !tbaa !14
  %vfn.i.i.i = getelementptr inbounds i8, ptr %vtable.i.i.i, i64 16
  %3 = load ptr, ptr %vfn.i.i.i, align 8
  invoke void %3(ptr noundef nonnull align 8 dereferenceable(16) %1)
          to label %.noexc.i.i unwind label %terminate.lpad.i.i

.noexc.i.i:                                       ; preds = %if.then.i.i.i
  %weak_count_.i.i.i.i = getelementptr inbounds nuw i8, ptr %1, i64 12
  %4 = atomicrmw sub ptr %weak_count_.i.i.i.i, i32 1 acq_rel, align 4
  %cmp.i.i.i.i = icmp eq i32 %4, 1
  br i1 %cmp.i.i.i.i, label %if.then.i.i.i.i, label %_ZN5boost10shared_ptrIN8QuantLib9CmsMarketEED2Ev.exit

if.then.i.i.i.i:                                  ; preds = %.noexc.i.i
  %vtable.i.i.i.i = load ptr, ptr %1, align 8, !tbaa !14
  %vfn.i.i.i.i = getelementptr inbounds i8, ptr %vtable.i.i.i.i, i64 24
  %5 = load ptr, ptr %vfn.i.i.i.i, align 8
  invoke void %5(ptr noundef nonnull align 8 dereferenceable(16) %1)
          to label %_ZN5boost10shared_ptrIN8QuantLib9CmsMarketEED2Ev.exit unwind label %terminate.lpad.i.i

terminate.lpad.i.i:                               ; preds = %if.then.i.i.i.i, %if.then.i.i.i
  %6 = landingpad { ptr, i32 }
          catch ptr null
  %7 = extractvalue { ptr, i32 } %6, 0
  tail call void @__clang_call_terminate(ptr %7) #25
  unreachable

_ZN5boost10shared_ptrIN8QuantLib9CmsMarketEED2Ev.exit: ; preds = %_ZN8QuantLib6MatrixD2Ev.exit, %if.then.i.i, %.noexc.i.i, %if.then.i.i.i.i
  %pn.i.i = getelementptr inbounds nuw i8, ptr %this, i64 24
  %8 = load ptr, ptr %pn.i.i, align 8, !tbaa !16
  %cmp.not.i.i.i = icmp eq ptr %8, null
  br i1 %cmp.not.i.i.i, label %_ZN8QuantLib6HandleINS_27SwaptionVolatilityStructureEED2Ev.exit, label %if.then.i.i.i2

if.then.i.i.i2:                                   ; preds = %_ZN5boost10shared_ptrIN8QuantLib9CmsMarketEED2Ev.exit
  %use_count_.i.i.i.i = getelementptr inbounds nuw i8, ptr %8, i64 8
  %9 = atomicrmw sub ptr %use_count_.i.i.i.i, i32 1 acq_rel, align 4
  %cmp.i.i.i.i3 = icmp eq i32 %9, 1
  br i1 %cmp.i.i.i.i3, label %if.then.i.i.i.i4, label %_ZN8QuantLib6HandleINS_27SwaptionVolatilityStructureEED2Ev.exit

if.then.i.i.i.i4:                                 ; preds = %if.then.i.i.i2
  %vtable.i.i.i.i5 = load ptr, ptr %8, align 8, !tbaa !14
  %vfn.i.i.i.i6 = getelementptr inbounds i8, ptr %vtable.i.i.i.i5, i64 16
  %10 = load ptr, ptr %vfn.i.i.i.i6, align 8
  invoke void %10(ptr noundef nonnull align 8 dereferenceable(16) %8)
          to label %.noexc.i.i.i unwind label %terminate.lpad.i.i.i

.noexc.i.i.i:                                     ; preds = %if.then.i.i.i.i4
  %weak_count_.i.i.i.i.i = getelementptr inbounds nuw i8, ptr %8, i64 12
  %11 = atomicrmw sub ptr %weak_count_.i.i.i.i.i, i32 1 acq_rel, align 4
  %cmp.i.i.i.i.i = icmp eq i32 %11, 1
  br i1 %cmp.i.i.i.i.i, label %if.then.i.i.i.i.i, label %_ZN8QuantLib6HandleINS_27SwaptionVolatilityStructureEED2Ev.exit

if.then.i.i.i.i.i:                                ; preds = %.noexc.i.i.i
  %vtable.i.i.i.i.i = load ptr, ptr %8, align 8, !tbaa !14
  %vfn.i.i.i.i.i = getelementptr inbounds i8, ptr %vtable.i.i.i.i.i, i64 24
  %12 = load ptr, ptr %vfn.i.i.i.i.i, align 8
  invoke void %12(ptr noundef nonnull align 8 dereferenceable(16) %8)
          to label %_ZN8QuantLib6HandleINS_27SwaptionVolatilityStructureEED2Ev.exit unwind label %terminate.lpad.i.i.i

terminate.lpad.i.i.i:                             ; preds = %if.then.i.i.i.i.i, %if.then.i.i.i.i4
  %13 = landingpad { ptr, i32 }
          catch ptr null
  %14 = extractvalue { ptr, i32 } %13, 0
  tail call void @__clang_call_terminate(ptr %14) #25
  unreachable

_ZN8QuantLib6HandleINS_27SwaptionVolatilityStructureEED2Ev.exit: ; preds = %_ZN5boost10shared_ptrIN8QuantLib9CmsMarketEED2Ev.exit, %if.then.i.i.i2, %.noexc.i.i.i, %if.then.i.i.i.i.i
  ret void
}